target datalayout = "e-m:e-p270:32:32-p271:32:32-p272:64:64-i64:64-i128:128-f80:128-n8:16:32:64-S128"
target triple = "x86_64-pc-linux-gnu"

%struct.AVCodecContext = type { ptr, i32, i32, ptr, i32, i32, ptr, ptr, ptr, i64, i32, i32, ptr, i32, %struct.AVRational, %struct.AVRational, %struct.AVRational, i32, i32, i32, i32, i32, %struct.AVRational, i32, i32, i32, i32, i32, i32, i32, i32, i32, i32, i32, ptr, ptr, i32, float, float, float, float, float, float, float, float, float, i32, i32, i32, i32, i32, i32, i32, i32, i32, i32, i32, i32, ptr, ptr, ptr, i32, i32, i32, i32, i32, i32, i32, i32, i32, i32, %struct.AVChannelLayout, i32, i32, i32, i32, i32, i32, i32, i32, ptr, i32, i32, i32, float, float, i32, i32, i32, i32, i32, ptr, i64, i64, float, float, i32, i32, ptr, ptr, i32, i32, i32, i32, i32, ptr, ptr, ptr, ptr, i32, i32, [8 x i64], i32, i32, i32, i32, i32, i32, i32, ptr, ptr, i32, i32, i32, i32, i32, i32, i32, i32, i32, i32, ptr, ptr, i32, i32, ptr, ptr, ptr, ptr, i32, i32, i64, i32, i32, i64, ptr, i64, ptr, i32, ptr, i32 }
%struct.AVRational = type { i32, i32 }
%struct.AVChannelLayout = type { i32, i32, %union.anon.0, ptr }
%union.anon.0 = type { i64 }
%struct.XanContext = type { ptr, ptr, ptr, i32, ptr, i32, ptr, i32, ptr, i32, i32, i32 }

; Function Attrs: cold nounwind optsize uwtable
define internal i32 @xan_decode_init(ptr noundef %0) #0 {
  %2 = alloca i32, align 4
  %3 = alloca ptr, align 8
  %4 = alloca ptr, align 8
  %5 = alloca i32, align 4
  store ptr %0, ptr %3, align 8, !tbaa !4
  call void @llvm.lifetime.start.p0(i64 8, ptr %4) #10
  %6 = load ptr, ptr %3, align 8, !tbaa !4
  %7 = getelementptr inbounds nuw %struct.AVCodecContext, ptr %6, i32 0, i32 6
  %8 = load ptr, ptr %7, align 8, !tbaa !9
  store ptr %8, ptr %4, align 8, !tbaa !29
  %9 = load ptr, ptr %3, align 8, !tbaa !4
  %10 = load ptr, ptr %4, align 8, !tbaa !29
  %11 = getelementptr inbounds nuw %struct.XanContext, ptr %10, i32 0, i32 0
  store ptr %9, ptr %11, align 8, !tbaa !31
  %12 = load ptr, ptr %4, align 8, !tbaa !29
  %13 = getelementptr inbounds nuw %struct.XanContext, ptr %12, i32 0, i32 11
  store i32 0, ptr %13, align 8, !tbaa !34
  %14 = load ptr, ptr %3, align 8, !tbaa !4
  %15 = getelementptr inbounds nuw %struct.AVCodecContext, ptr %14, i32 0, i32 23
  store i32 11, ptr %15, align 8, !tbaa !35
  %16 = load ptr, ptr %3, align 8, !tbaa !4
  %17 = getelementptr inbounds nuw %struct.AVCodecContext, ptr %16, i32 0, i32 18
  %18 = load i32, ptr %17, align 8, !tbaa !36
  %19 = load ptr, ptr %3, align 8, !tbaa !4
  %20 = getelementptr inbounds nuw %struct.AVCodecContext, ptr %19, i32 0, i32 19
  %21 = load i32, ptr %20, align 4, !tbaa !37
  %22 = mul nsw i32 %18, %21
  %23 = load ptr, ptr %4, align 8, !tbaa !29
  %24 = getelementptr inbounds nuw %struct.XanContext, ptr %23, i32 0, i32 5
  store i32 %22, ptr %24, align 8, !tbaa !38
  %25 = load ptr, ptr %4, align 8, !tbaa !29
  %26 = getelementptr inbounds nuw %struct.XanContext, ptr %25, i32 0, i32 5
  %27 = load i32, ptr %26, align 8, !tbaa !38
  %28 = sext i32 %27 to i64
  %29 = call noalias ptr @av_malloc(i64 noundef %28)
  %30 = load ptr, ptr %4, align 8, !tbaa !29
  %31 = getelementptr inbounds nuw %struct.XanContext, ptr %30, i32 0, i32 4
  store ptr %29, ptr %31, align 8, !tbaa !39
  %32 = load ptr, ptr %4, align 8, !tbaa !29
  %33 = getelementptr inbounds nuw %struct.XanContext, ptr %32, i32 0, i32 4
  %34 = load ptr, ptr %33, align 8, !tbaa !39
  %35 = icmp ne ptr %34, null
  br i1 %35, label %37, label %36

36:                                               ; preds = %1
  store i32 -12, ptr %2, align 4
  store i32 1, ptr %5, align 4
  br label %70

37:                                               ; preds = %1
  %38 = load ptr, ptr %3, align 8, !tbaa !4
  %39 = getelementptr inbounds nuw %struct.AVCodecContext, ptr %38, i32 0, i32 18
  %40 = load i32, ptr %39, align 8, !tbaa !36
  %41 = load ptr, ptr %3, align 8, !tbaa !4
  %42 = getelementptr inbounds nuw %struct.AVCodecContext, ptr %41, i32 0, i32 19
  %43 = load i32, ptr %42, align 4, !tbaa !37
  %44 = mul nsw i32 %40, %43
  %45 = load ptr, ptr %4, align 8, !tbaa !29
  %46 = getelementptr inbounds nuw %struct.XanContext, ptr %45, i32 0, i32 7
  store i32 %44, ptr %46, align 8, !tbaa !40
  %47 = load ptr, ptr %4, align 8, !tbaa !29
  %48 = getelementptr inbounds nuw %struct.XanContext, ptr %47, i32 0, i32 7
  %49 = load i32, ptr %48, align 8, !tbaa !40
  %50 = add nsw i32 %49, 130
  %51 = sext i32 %50 to i64
  %52 = call noalias ptr @av_malloc(i64 noundef %51)
  %53 = load ptr, ptr %4, align 8, !tbaa !29
  %54 = getelementptr inbounds nuw %struct.XanContext, ptr %53, i32 0, i32 6
  store ptr %52, ptr %54, align 8, !tbaa !41
  %55 = load ptr, ptr %4, align 8, !tbaa !29
  %56 = getelementptr inbounds nuw %struct.XanContext, ptr %55, i32 0, i32 6
  %57 = load ptr, ptr %56, align 8, !tbaa !41
  %58 = icmp ne ptr %57, null
  br i1 %58, label %60, label %59

59:                                               ; preds = %37
  store i32 -12, ptr %2, align 4
  store i32 1, ptr %5, align 4
  br label %70

60:                                               ; preds = %37
  %61 = call ptr @av_frame_alloc()
  %62 = load ptr, ptr %4, align 8, !tbaa !29
  %63 = getelementptr inbounds nuw %struct.XanContext, ptr %62, i32 0, i32 1
  store ptr %61, ptr %63, align 8, !tbaa !42
  %64 = load ptr, ptr %4, align 8, !tbaa !29
  %65 = getelementptr inbounds nuw %struct.XanContext, ptr %64, i32 0, i32 1
  %66 = load ptr, ptr %65, align 8, !tbaa !42
  %67 = icmp ne ptr %66, null
  br i1 %67, label %69, label %68

68:                                               ; preds = %60
  store i32 -12, ptr %2, align 4
  store i32 1, ptr %5, align 4
  br label %70

69:                                               ; preds = %60
  store i32 0, ptr %2, align 4
  store i32 1, ptr %5, align 4
  br label %70

70:                                               ; preds = %69, %68, %59, %36
  call void @llvm.lifetime.end.p0(i64 8, ptr %4) #10
  %71 = load i32, ptr %2, align 4
  ret i32 %71
}