; Function Attrs: cold nounwind optsize uwtable
define internal range(i32 -12, 1) i32 @xan_decode_init(ptr noundef %0) #0 {
  %2 = getelementptr inbounds nuw i8, ptr %0, i64 32
  %3 = load ptr, ptr %2, align 8, !tbaa !4
  store ptr %0, ptr %3, align 8, !tbaa !27
  %4 = getelementptr inbounds nuw i8, ptr %3, i64 80
  store i32 0, ptr %4, align 8, !tbaa !31
  %5 = getelementptr inbounds nuw i8, ptr %0, i64 136
  store i32 11, ptr %5, align 8, !tbaa !32
  %6 = getelementptr inbounds nuw i8, ptr %0, i64 112
  %7 = load i32, ptr %6, align 8, !tbaa !33
  %8 = getelementptr inbounds nuw i8, ptr %0, i64 116
  %9 = load i32, ptr %8, align 4, !tbaa !34
  %10 = mul nsw i32 %9, %7
  %11 = getelementptr inbounds nuw i8, ptr %3, i64 40
  store i32 %10, ptr %11, align 8, !tbaa !35
  %12 = sext i32 %10 to i64
  %13 = tail call noalias ptr @av_malloc(i64 noundef %12) #6
  %14 = getelementptr inbounds nuw i8, ptr %3, i64 32
  store ptr %13, ptr %14, align 8, !tbaa !36
  %.not = icmp eq ptr %13, null
  br i1 %.not, label %27, label %15

15:                                               ; preds = %1
  %16 = load i32, ptr %6, align 8, !tbaa !33
  %17 = load i32, ptr %8, align 4, !tbaa !34
  %18 = mul nsw i32 %17, %16
  %19 = getelementptr inbounds nuw i8, ptr %3, i64 56
  store i32 %18, ptr %19, align 8, !tbaa !37
  %20 = add nsw i32 %18, 130
  %21 = sext i32 %20 to i64
  %22 = tail call noalias ptr @av_malloc(i64 noundef %21) #6
  %23 = getelementptr inbounds nuw i8, ptr %3, i64 48
  store ptr %22, ptr %23, align 8, !tbaa !38
  %.not19 = icmp eq ptr %22, null
  br i1 %.not19, label %27, label %24

24:                                               ; preds = %15
  %25 = tail call ptr @av_frame_alloc() #6
  %26 = getelementptr inbounds nuw i8, ptr %3, i64 8
  store ptr %25, ptr %26, align 8, !tbaa !39
  %.not20 = icmp eq ptr %25, null
  %. = select i1 %.not20, i32 -12, i32 0
  br label %27

27:                                               ; preds = %24, %15, %1
  %.0 = phi i32 [ -12, %1 ], [ -12, %15 ], [ %., %24 ]
  ret i32 %.0
}